target datalayout = "e-m:e-p270:32:32-p271:32:32-p272:64:64-i64:64-i128:128-f80:128-n8:16:32:64-S128"
target triple = "x86_64-unknown-linux-gnu"

%struct.cbs_st = type { ptr, i64 }

; Function Attrs: nounwind uwtable
define hidden ptr @d2i_ECParameters(ptr noundef %out_key, ptr noundef %inp, i64 noundef %len) #0 {
entry:
  %retval = alloca ptr, align 8
  %out_key.addr = alloca ptr, align 8
  %inp.addr = alloca ptr, align 8
  %len.addr = alloca i64, align 8
  %cbs = alloca %struct.cbs_st, align 8
  %group = alloca ptr, align 8
  %ret = alloca ptr, align 8
  store ptr %out_key, ptr %out_key.addr, align 8
  store ptr %inp, ptr %inp.addr, align 8
  store i64 %len, ptr %len.addr, align 8
  %0 = load i64, ptr %len.addr, align 8
  %cmp = icmp slt i64 %0, 0
  br i1 %cmp, label %if.then, label %if.end

if.then:                                          ; preds = %entry
  store ptr null, ptr %retval, align 8
  br label %return

if.end:                                           ; preds = %entry
  %1 = load ptr, ptr %inp.addr, align 8
  %2 = load ptr, ptr %1, align 8
  %3 = load i64, ptr %len.addr, align 8
  call void @CBS_init(ptr noundef %cbs, ptr noundef %2, i64 noundef %3)
  %call = call ptr @EC_KEY_parse_parameters(ptr noundef %cbs)
  store ptr %call, ptr %group, align 8
  %4 = load ptr, ptr %group, align 8
  %cmp1 = icmp eq ptr %4, null
  br i1 %cmp1, label %if.then2, label %if.end3

if.then2:                                         ; preds = %if.end
  store ptr null, ptr %retval, align 8
  br label %return

if.end3:                                          ; preds = %if.end
  %call4 = call ptr @EC_KEY_new()
  store ptr %call4, ptr %ret, align 8
  %5 = load ptr, ptr %ret, align 8
  %cmp5 = icmp eq ptr %5, null
  br i1 %cmp5, label %if.then7, label %lor.lhs.false

lor.lhs.false:                                    ; preds = %if.end3
  %6 = load ptr, ptr %ret, align 8
  %7 = load ptr, ptr %group, align 8
  %call6 = call i32 @EC_KEY_set_group(ptr noundef %6, ptr noundef %7)
  %tobool = icmp ne i32 %call6, 0
  br i1 %tobool, label %if.end8, label %if.then7

if.then7:                                         ; preds = %lor.lhs.false, %if.end3
  %8 = load ptr, ptr %group, align 8
  call void @EC_GROUP_free(ptr noundef %8)
  %9 = load ptr, ptr %ret, align 8
  call void @EC_KEY_free(ptr noundef %9)
  store ptr null, ptr %retval, align 8
  br label %return

if.end8:                                          ; preds = %lor.lhs.false
  %10 = load ptr, ptr %group, align 8
  call void @EC_GROUP_free(ptr noundef %10)
  %11 = load ptr, ptr %out_key.addr, align 8
  %cmp9 = icmp ne ptr %11, null
  br i1 %cmp9, label %if.then10, label %if.end11

if.then10:                                        ; preds = %if.end8
  %12 = load ptr, ptr %out_key.addr, align 8
  %13 = load ptr, ptr %12, align 8
  call void @EC_KEY_free(ptr noundef %13)
  %14 = load ptr, ptr %ret, align 8
  %15 = load ptr, ptr %out_key.addr, align 8
  store ptr %14, ptr %15, align 8
  br label %if.end11

if.end11:                                         ; preds = %if.then10, %if.end8
  %call12 = call ptr @CBS_data(ptr noundef %cbs)
  %16 = load ptr, ptr %inp.addr, align 8
  store ptr %call12, ptr %16, align 8
  %17 = load ptr, ptr %ret, align 8
  store ptr %17, ptr %retval, align 8
  br label %return

return:                                           ; preds = %if.end11, %if.then7, %if.then2, %if.then
  %18 = load ptr, ptr %retval, align 8
  ret ptr %18
}