; Function Attrs: nounwind uwtable
define hidden ptr @d2i_ECParameters(ptr noundef %out_key, ptr noundef captures(none) %inp, i64 noundef %len) local_unnamed_addr #0 {
entry:
  %cbs = alloca %struct.cbs_st, align 8
  %cmp = icmp slt i64 %len, 0
  br i1 %cmp, label %return, label %if.end

if.end:                                           ; preds = %entry
  %0 = load ptr, ptr %inp, align 8
  call void @CBS_init(ptr noundef nonnull %cbs, ptr noundef %0, i64 noundef %len) #7
  %call = call ptr @EC_KEY_parse_parameters(ptr noundef nonnull %cbs)
  %cmp1 = icmp eq ptr %call, null
  br i1 %cmp1, label %return, label %if.end3

if.end3:                                          ; preds = %if.end
  %call4 = call ptr @EC_KEY_new() #7
  %cmp5 = icmp eq ptr %call4, null
  br i1 %cmp5, label %if.then7, label %lor.lhs.false

lor.lhs.false:                                    ; preds = %if.end3
  %call6 = call i32 @EC_KEY_set_group(ptr noundef nonnull %call4, ptr noundef nonnull %call) #7
  %tobool.not = icmp eq i32 %call6, 0
  br i1 %tobool.not, label %if.then7, label %if.end8

if.then7:                                         ; preds = %lor.lhs.false, %if.end3
  call void @EC_GROUP_free(ptr noundef nonnull %call) #7
  call void @EC_KEY_free(ptr noundef %call4) #7
  br label %return

if.end8:                                          ; preds = %lor.lhs.false
  call void @EC_GROUP_free(ptr noundef nonnull %call) #7
  %cmp9.not = icmp eq ptr %out_key, null
  br i1 %cmp9.not, label %if.end11, label %if.then10

if.then10:                                        ; preds = %if.end8
  %1 = load ptr, ptr %out_key, align 8
  call void @EC_KEY_free(ptr noundef %1) #7
  store ptr %call4, ptr %out_key, align 8
  br label %if.end11

if.end11:                                         ; preds = %if.then10, %if.end8
  %call12 = call ptr @CBS_data(ptr noundef nonnull %cbs) #7
  store ptr %call12, ptr %inp, align 8
  br label %return

return:                                           ; preds = %if.end, %entry, %if.end11, %if.then7
  %retval.0 = phi ptr [ null, %if.then7 ], [ %call4, %if.end11 ], [ null, %entry ], [ null, %if.end ]
  ret ptr %retval.0
}